; Function Attrs: nounwind uwtable
define ptr @l_Lean_Elab_addDeclarationRangesForBuiltin___at_Lean_Elab_Command_elabInitialize___spec__1(ptr noundef %0, ptr noundef %1, ptr noundef %2, ptr noundef %3, ptr noundef %4, ptr noundef %5) local_unnamed_addr #0 {
  %7 = ptrtoint ptr %2 to i64
  %8 = and i64 %7, 1
  %.not = icmp eq i64 %8, 0
  br i1 %.not, label %9, label %lean_inc.exit

9:                                                ; preds = %6
  %.val.i = load i32, ptr %2, align 4, !tbaa !4
  %10 = icmp sgt i32 %.val.i, 0
  br i1 %10, label %11, label %13, !prof !11

11:                                               ; preds = %9
  %12 = add nuw i32 %.val.i, 1
  store i32 %12, ptr %2, align 4, !tbaa !4
  br label %lean_inc.exit

13:                                               ; preds = %9
  %.not.i35 = icmp eq i32 %.val.i, 0
  br i1 %.not.i35, label %lean_inc.exit, label %14

14:                                               ; preds = %13
  tail call void @lean_inc_ref_cold(ptr noundef nonnull %2) #6
  br label %lean_inc.exit

lean_inc.exit:                                    ; preds = %14, %13, %11, %6
  %15 = tail call ptr @l_Lean_Syntax_getKind(ptr noundef %2) #6
  %16 = load ptr, ptr @l_Lean_Elab_addDeclarationRangesForBuiltin___at_Lean_Elab_Command_elabAxiom___spec__1___closed__2, align 8, !tbaa !9
  %17 = tail call zeroext i8 @lean_name_eq(ptr noundef %15, ptr noundef %16) #6
  %18 = ptrtoint ptr %15 to i64
  %19 = and i64 %18, 1
  %.not36 = icmp eq i64 %19, 0
  br i1 %.not36, label %20, label %lean_dec.exit26

20:                                               ; preds = %lean_inc.exit
  %21 = load i32, ptr %15, align 4, !tbaa !4
  %22 = icmp sgt i32 %21, 1
  br i1 %22, label %23, label %25, !prof !11

23:                                               ; preds = %20
  %24 = add nsw i32 %21, -1
  store i32 %24, ptr %15, align 4, !tbaa !4
  br label %lean_dec.exit26

25:                                               ; preds = %20
  %.not.i = icmp eq i32 %21, 0
  br i1 %.not.i, label %lean_dec.exit26, label %26

26:                                               ; preds = %25
  tail call void @lean_dec_ref_cold(ptr noundef nonnull %15) #6
  br label %lean_dec.exit26

lean_dec.exit26:                                  ; preds = %26, %25, %23, %lean_inc.exit
  %27 = icmp eq i8 %17, 0
  br i1 %27, label %28, label %30

28:                                               ; preds = %lean_dec.exit26
  %29 = tail call ptr @l_Lean_Elab_addDeclarationRangesForBuiltin___at_Lean_Elab_Command_elabInitialize___spec__1___lambda__1(ptr noundef %2, ptr noundef %1, ptr noundef %0, ptr nonnull poison, ptr noundef %3, ptr noundef %4, ptr noundef %5)
  br label %71

30:                                               ; preds = %lean_dec.exit26
  %31 = ptrtoint ptr %3 to i64
  %32 = and i64 %31, 1
  %.not37 = icmp eq i64 %32, 0
  br i1 %.not37, label %33, label %lean_dec.exit25

33:                                               ; preds = %30
  %34 = load i32, ptr %3, align 4, !tbaa !4
  %35 = icmp sgt i32 %34, 1
  br i1 %35, label %36, label %38, !prof !11

36:                                               ; preds = %33
  %37 = add nsw i32 %34, -1
  store i32 %37, ptr %3, align 4, !tbaa !4
  br label %lean_dec.exit25

38:                                               ; preds = %33
  %.not.i27 = icmp eq i32 %34, 0
  br i1 %.not.i27, label %lean_dec.exit25, label %39

39:                                               ; preds = %38
  tail call void @lean_dec_ref_cold(ptr noundef nonnull %3) #6
  br label %lean_dec.exit25

lean_dec.exit25:                                  ; preds = %39, %38, %36, %30
  br i1 %.not, label %40, label %lean_dec.exit24

40:                                               ; preds = %lean_dec.exit25
  %41 = load i32, ptr %2, align 4, !tbaa !4
  %42 = icmp sgt i32 %41, 1
  br i1 %42, label %43, label %45, !prof !11

43:                                               ; preds = %40
  %44 = add nsw i32 %41, -1
  store i32 %44, ptr %2, align 4, !tbaa !4
  br label %lean_dec.exit24

45:                                               ; preds = %40
  %.not.i29 = icmp eq i32 %41, 0
  br i1 %.not.i29, label %lean_dec.exit24, label %46

46:                                               ; preds = %45
  tail call void @lean_dec_ref_cold(ptr noundef nonnull %2) #6
  br label %lean_dec.exit24

lean_dec.exit24:                                  ; preds = %46, %45, %43, %lean_dec.exit25
  %47 = ptrtoint ptr %1 to i64
  %48 = and i64 %47, 1
  %.not38 = icmp eq i64 %48, 0
  br i1 %.not38, label %49, label %lean_dec.exit23

49:                                               ; preds = %lean_dec.exit24
  %50 = load i32, ptr %1, align 4, !tbaa !4
  %51 = icmp sgt i32 %50, 1
  br i1 %51, label %52, label %54, !prof !11

52:                                               ; preds = %49
  %53 = add nsw i32 %50, -1
  store i32 %53, ptr %1, align 4, !tbaa !4
  br label %lean_dec.exit23

54:                                               ; preds = %49
  %.not.i31 = icmp eq i32 %50, 0
  br i1 %.not.i31, label %lean_dec.exit23, label %55

55:                                               ; preds = %54
  tail call void @lean_dec_ref_cold(ptr noundef nonnull %1) #6
  br label %lean_dec.exit23

lean_dec.exit23:                                  ; preds = %55, %54, %52, %lean_dec.exit24
  %56 = ptrtoint ptr %0 to i64
  %57 = and i64 %56, 1
  %.not39 = icmp eq i64 %57, 0
  br i1 %.not39, label %58, label %lean_dec.exit

58:                                               ; preds = %lean_dec.exit23
  %59 = load i32, ptr %0, align 4, !tbaa !4
  %60 = icmp sgt i32 %59, 1
  br i1 %60, label %61, label %63, !prof !11

61:                                               ; preds = %58
  %62 = add nsw i32 %59, -1
  store i32 %62, ptr %0, align 4, !tbaa !4
  br label %lean_dec.exit

63:                                               ; preds = %58
  %.not.i33 = icmp eq i32 %59, 0
  br i1 %.not.i33, label %lean_dec.exit, label %64

64:                                               ; preds = %63
  tail call void @lean_dec_ref_cold(ptr noundef nonnull %0) #6
  br label %lean_dec.exit

lean_dec.exit:                                    ; preds = %64, %63, %61, %lean_dec.exit23
  tail call void @lean_inc_heartbeat() #6
  %65 = tail call noalias ptr @mi_malloc_small(i64 noundef 24) #6
  %66 = icmp eq ptr %65, null
  br i1 %66, label %67, label %lean_alloc_ctor.exit

67:                                               ; preds = %lean_dec.exit
  tail call void @lean_internal_panic_out_of_memory() #7
  unreachable

lean_alloc_ctor.exit:                             ; preds = %lean_dec.exit
  %68 = getelementptr inbounds nuw i8, ptr %65, i64 4
  store i32 1, ptr %65, align 4, !tbaa !4
  store i32 131096, ptr %68, align 4
  %69 = getelementptr inbounds nuw i8, ptr %65, i64 8
  store ptr inttoptr (i64 1 to ptr), ptr %69, align 8, !tbaa !9
  %70 = getelementptr inbounds nuw i8, ptr %65, i64 16
  store ptr %5, ptr %70, align 8, !tbaa !9
  br label %71

71:                                               ; preds = %lean_alloc_ctor.exit, %28
  %.0 = phi ptr [ %29, %28 ], [ %65, %lean_alloc_ctor.exit ]
  ret ptr %.0
}